target datalayout = "e-m:e-p270:32:32-p271:32:32-p272:64:64-i64:64-i128:128-f80:128-n8:16:32:64-S128"
target triple = "x86_64-pc-linux-gnu"

%struct.expert_field = type { i32, i32 }
%struct._packet_info = type { ptr, ptr, i32, i32, %struct.nstime_t, %struct.nstime_t, %struct.nstime_t, i32, ptr, ptr, ptr, ptr, %struct._address, %struct._address, %struct._address, %struct._address, %struct._address, %struct._address, i32, ptr, i32, %struct.anon, i32, i32, i32, i32, ptr, i32, ptr, ptr, i16, i16, i32, i32, i16, i32, i32, ptr, ptr, ptr, i8, i8, i16, i16, i16, i32, i16, i16, ptr, ptr, ptr, ptr, ptr, i32 }
%struct.nstime_t = type { i64, i32 }
%struct._address = type { i32, i32, ptr, ptr }
%struct.anon = type { i8, [3 x i8] }
%struct.tcp_analysis = type { %struct._tcp_flow_t, %struct._tcp_flow_t, ptr, ptr, ptr, ptr, %struct.nstime_t, %struct.nstime_t, %struct.nstime_t, %struct.nstime_t, i32, i16, i8, ptr, i8, ptr, i32, i32, i32 }
%struct._tcp_flow_t = type { i8, i32, i32, i32, i16, i16, i16, i32, i32, i32, i8, i32, i32, ptr, i16, i32, i32, ptr, ptr, ptr, ptr }
%struct.tcpheader = type { i32, i32, i32, i32, i32, i32, i32, i16, i16, i8, i32, i16, i32, %struct._address, %struct._address, i8, [4 x i32], [4 x i32], ptr }

@hf_tcp_option_fast_open_cookie_request = internal global i32 0, align 4
@hf_tcp_option_fast_open_cookie = internal global i32 0, align 4
@ei_tcp_analysis_tfo_syn = internal global %struct.expert_field zeroinitializer, align 4
@.str.1021 = private unnamed_addr constant [7 x i8] c" TFO=R\00", align 1
@.str.1022 = private unnamed_addr constant [7 x i8] c" TFO=C\00", align 1

; Function Attrs: nounwind uwtable
define internal void @dissect_tcpopt_tfo_payload(ptr noundef %0, i32 noundef %1, i32 noundef %2, ptr noundef %3, ptr noundef %4, ptr noundef %5) #0 {
  %7 = alloca ptr, align 8
  %8 = alloca i32, align 4
  %9 = alloca i32, align 4
  %10 = alloca ptr, align 8
  %11 = alloca ptr, align 8
  %12 = alloca ptr, align 8
  %13 = alloca ptr, align 8
  %14 = alloca ptr, align 8
  %15 = alloca ptr, align 8
  store ptr %0, ptr %7, align 8
  store i32 %1, ptr %8, align 4
  store i32 %2, ptr %9, align 4
  store ptr %3, ptr %10, align 8
  store ptr %4, ptr %11, align 8
  store ptr %5, ptr %12, align 8
  %16 = load ptr, ptr %12, align 8
  store ptr %16, ptr %14, align 8
  %17 = load i32, ptr %9, align 4
  %18 = icmp eq i32 %17, 2
  br i1 %18, label %19, label %28

19:                                               ; preds = %6
  %20 = load ptr, ptr %11, align 8
  %21 = load i32, ptr @hf_tcp_option_fast_open_cookie_request, align 4
  %22 = load ptr, ptr %7, align 8
  %23 = load i32, ptr %8, align 4
  %24 = call ptr @proto_tree_add_item(ptr noundef %20, i32 noundef %21, ptr noundef %22, i32 noundef %23, i32 noundef 2, i32 noundef 0)
  %25 = load ptr, ptr %10, align 8
  %26 = getelementptr inbounds %struct._packet_info, ptr %25, i32 0, i32 1
  %27 = load ptr, ptr %26, align 8
  call void @col_append_str(ptr noundef %27, i32 noundef 25, ptr noundef @.str.1021)
  br label %77

28:                                               ; preds = %6
  %29 = load i32, ptr %9, align 4
  %30 = icmp ugt i32 %29, 2
  br i1 %30, label %31, label %76

31:                                               ; preds = %28
  %32 = load ptr, ptr %11, align 8
  %33 = load i32, ptr @hf_tcp_option_fast_open_cookie, align 4
  %34 = load ptr, ptr %7, align 8
  %35 = load i32, ptr %8, align 4
  %36 = add i32 %35, 2
  %37 = load i32, ptr %9, align 4
  %38 = sub i32 %37, 2
  %39 = call ptr @proto_tree_add_item(ptr noundef %32, i32 noundef %33, ptr noundef %34, i32 noundef %36, i32 noundef %38, i32 noundef 0)
  store ptr %39, ptr %13, align 8
  %40 = load ptr, ptr %10, align 8
  %41 = getelementptr inbounds %struct._packet_info, ptr %40, i32 0, i32 1
  %42 = load ptr, ptr %41, align 8
  call void @col_append_str(ptr noundef %42, i32 noundef 25, ptr noundef @.str.1022)
  %43 = load ptr, ptr %14, align 8
  %44 = getelementptr inbounds %struct.tcpheader, ptr %43, i32 0, i32 11
  %45 = load i16, ptr %44, align 8
  %46 = zext i16 %45 to i32
  %47 = and i32 %46, 18
  %48 = icmp eq i32 %47, 2
  br i1 %48, label %49, label %75

49:                                               ; preds = %31
  %50 = load ptr, ptr %10, align 8
  %51 = load ptr, ptr %13, align 8
  %52 = call ptr @expert_add_info(ptr noundef %50, ptr noundef %51, ptr noundef @ei_tcp_analysis_tfo_syn)
  %53 = load ptr, ptr %14, align 8
  %54 = getelementptr inbounds %struct.tcpheader, ptr %53, i32 0, i32 4
  %55 = load i32, ptr %54, align 8
  %56 = icmp ne i32 %55, 0
  br i1 %56, label %57, label %74

57:                                               ; preds = %49
  %58 = load ptr, ptr %14, align 8
  %59 = getelementptr inbounds %struct.tcpheader, ptr %58, i32 0, i32 5
  %60 = load i32, ptr %59, align 4
  %61 = icmp ne i32 %60, 0
  br i1 %61, label %62, label %74

62:                                               ; preds = %57
  %63 = load ptr, ptr %10, align 8
  %64 = call ptr @get_tcp_conversation_data(ptr noundef null, ptr noundef %63)
  store ptr %64, ptr %15, align 8
  %65 = load ptr, ptr %15, align 8
  %66 = icmp ne ptr %65, null
  br i1 %66, label %67, label %73

67:                                               ; preds = %62
  %68 = load ptr, ptr %15, align 8
  %69 = getelementptr inbounds %struct.tcp_analysis, ptr %68, i32 0, i32 12
  %70 = load i8, ptr %69, align 2
  %71 = and i8 %70, -2
  %72 = or i8 %71, 1
  store i8 %72, ptr %69, align 2
  br label %73

73:                                               ; preds = %67, %62
  br label %74

74:                                               ; preds = %73, %57, %49
  br label %75

75:                                               ; preds = %74, %31
  br label %76

76:                                               ; preds = %75, %28
  br label %77

77:                                               ; preds = %76, %19
  ret void
}