; Function Attrs: nounwind uwtable
define internal fastcc void @dissect_tcpopt_tfo_payload(ptr noundef %0, i32 noundef range(i32 0, 3) %1, i32 noundef %2, ptr noundef %3, ptr noundef %4, ptr noundef readonly captures(none) %5) unnamed_addr #0 {
  %7 = icmp eq i32 %2, 2
  br i1 %7, label %8, label %13

8:                                                ; preds = %6
  %9 = load i32, ptr @hf_tcp_option_fast_open_cookie_request, align 4
  %10 = tail call ptr @proto_tree_add_item(ptr noundef %4, i32 noundef %9, ptr noundef %0, i32 noundef %1, i32 noundef 2, i32 noundef 0) #20
  %11 = getelementptr inbounds nuw i8, ptr %3, i64 8
  %12 = load ptr, ptr %11, align 8
  tail call void @col_append_str(ptr noundef %12, i32 noundef 25, ptr noundef nonnull @.str.1021) #20
  br label %39

13:                                               ; preds = %6
  %14 = icmp ugt i32 %2, 2
  br i1 %14, label %15, label %39

15:                                               ; preds = %13
  %16 = load i32, ptr @hf_tcp_option_fast_open_cookie, align 4
  %17 = add nuw nsw i32 %1, 2
  %18 = add i32 %2, -2
  %19 = tail call ptr @proto_tree_add_item(ptr noundef %4, i32 noundef %16, ptr noundef %0, i32 noundef %17, i32 noundef %18, i32 noundef 0) #20
  %20 = getelementptr inbounds nuw i8, ptr %3, i64 8
  %21 = load ptr, ptr %20, align 8
  tail call void @col_append_str(ptr noundef %21, i32 noundef 25, ptr noundef nonnull @.str.1022) #20
  %22 = getelementptr inbounds nuw i8, ptr %5, i64 40
  %23 = load i16, ptr %22, align 8
  %24 = and i16 %23, 18
  %25 = icmp eq i16 %24, 2
  br i1 %25, label %26, label %39

26:                                               ; preds = %15
  %27 = tail call ptr @expert_add_info(ptr noundef nonnull %3, ptr noundef %19, ptr noundef nonnull @ei_tcp_analysis_tfo_syn) #20
  %28 = getelementptr inbounds nuw i8, ptr %5, i64 16
  %29 = load i32, ptr %28, align 8
  %.not = icmp eq i32 %29, 0
  br i1 %.not, label %39, label %30

30:                                               ; preds = %26
  %31 = getelementptr inbounds nuw i8, ptr %5, i64 20
  %32 = load i32, ptr %31, align 4
  %.not20 = icmp eq i32 %32, 0
  br i1 %.not20, label %39, label %33

33:                                               ; preds = %30
  %34 = tail call ptr @get_tcp_conversation_data(ptr noundef null, ptr noundef nonnull %3)
  %.not21 = icmp eq ptr %34, null
  br i1 %.not21, label %39, label %35

35:                                               ; preds = %33
  %36 = getelementptr inbounds nuw i8, ptr %34, i64 310
  %37 = load i8, ptr %36, align 2
  %38 = or i8 %37, 1
  store i8 %38, ptr %36, align 2
  br label %39

39:                                               ; preds = %13, %26, %30, %35, %33, %15, %8
  ret void
}